target datalayout = "e-m:e-p270:32:32-p271:32:32-p272:64:64-i64:64-i128:128-f80:128-n8:16:32:64-S128"
target triple = "x86_64-pc-linux-gnu"

; Function Attrs: mustprogress nounwind uwtable
define linkonce_odr dso_local noundef float @_ZSt5log1pf(float noundef %0) #5 comdat {
  %2 = alloca float, align 4
  store float %0, ptr %2, align 4, !tbaa !46
  %3 = load float, ptr %2, align 4, !tbaa !46
  %4 = call float @log1pf(float noundef %3) #3, !tbaa !13
  ret float %4
}

; Function Attrs: inlinehint mustprogress nounwind uwtable
define linkonce_odr dso_local noundef nonnull align 4 dereferenceable(4) ptr @_ZSt3maxIfERKT_S2_S2_(ptr noundef nonnull align 4 dereferenceable(4) %0, ptr noundef nonnull align 4 dereferenceable(4) %1) #10 comdat {
  %3 = alloca ptr, align 8
  %4 = alloca ptr, align 8
  %5 = alloca ptr, align 8
  store ptr %0, ptr %4, align 8, !tbaa !48
  store ptr %1, ptr %5, align 8, !tbaa !48
  %6 = load ptr, ptr %4, align 8, !tbaa !48
  %7 = load float, ptr %6, align 4, !tbaa !46
  %8 = load ptr, ptr %5, align 8, !tbaa !48
  %9 = load float, ptr %8, align 4, !tbaa !46
  %10 = fcmp olt float %7, %9
  br i1 %10, label %11, label %13

11:                                               ; preds = %2
  %12 = load ptr, ptr %5, align 8, !tbaa !48
  store ptr %12, ptr %3, align 8
  br label %15

13:                                               ; preds = %2
  %14 = load ptr, ptr %4, align 8, !tbaa !48
  store ptr %14, ptr %3, align 8
  br label %15

15:                                               ; preds = %13, %11
  %16 = load ptr, ptr %3, align 8
  ret ptr %16
}

; Function Attrs: inlinehint mustprogress nounwind uwtable
define linkonce_odr dso_local noundef nonnull align 4 dereferenceable(4) ptr @_ZSt3minIfERKT_S2_S2_(ptr noundef nonnull align 4 dereferenceable(4) %0, ptr noundef nonnull align 4 dereferenceable(4) %1) #10 comdat {
  %3 = alloca ptr, align 8
  %4 = alloca ptr, align 8
  %5 = alloca ptr, align 8
  store ptr %0, ptr %4, align 8, !tbaa !48
  store ptr %1, ptr %5, align 8, !tbaa !48
  %6 = load ptr, ptr %5, align 8, !tbaa !48
  %7 = load float, ptr %6, align 4, !tbaa !46
  %8 = load ptr, ptr %4, align 8, !tbaa !48
  %9 = load float, ptr %8, align 4, !tbaa !46
  %10 = fcmp olt float %7, %9
  br i1 %10, label %11, label %13

11:                                               ; preds = %2
  %12 = load ptr, ptr %5, align 8, !tbaa !48
  store ptr %12, ptr %3, align 8
  br label %15

13:                                               ; preds = %2
  %14 = load ptr, ptr %4, align 8, !tbaa !48
  store ptr %14, ptr %3, align 8
  br label %15

15:                                               ; preds = %13, %11
  %16 = load ptr, ptr %3, align 8
  ret ptr %16
}

; Function Attrs: mustprogress uwtable
define dso_local void @_Z23mergeOverlappingSamplesffffRfS_(float noundef %0, float noundef %1, float noundef %2, float noundef %3, ptr noundef nonnull align 4 dereferenceable(4) %4, ptr noundef nonnull align 4 dereferenceable(4) %5) #6 {
  %7 = alloca float, align 4
  %8 = alloca float, align 4
  %9 = alloca float, align 4
  %10 = alloca float, align 4
  %11 = alloca ptr, align 8
  %12 = alloca ptr, align 8
  %13 = alloca float, align 4
  %14 = alloca float, align 4
  %15 = alloca float, align 4
  %16 = alloca float, align 4
  %17 = alloca float, align 4
  %18 = alloca float, align 4
  %19 = alloca float, align 4
  %20 = alloca float, align 4
  %21 = alloca float, align 4
  %22 = alloca float, align 4
  store float %0, ptr %7, align 4, !tbaa !46
  store float %1, ptr %8, align 4, !tbaa !46
  store float %2, ptr %9, align 4, !tbaa !46
  store float %3, ptr %10, align 4, !tbaa !46
  store ptr %4, ptr %11, align 8, !tbaa !48
  store ptr %5, ptr %12, align 8, !tbaa !48
  call void @llvm.lifetime.start.p0(i64 4, ptr %13) #3
  store float 0.000000e+00, ptr %13, align 4, !tbaa !46
  call void @llvm.lifetime.start.p0(i64 4, ptr %14) #3
  store float 1.000000e+00, ptr %14, align 4, !tbaa !46
  %23 = call noundef nonnull align 4 dereferenceable(4) ptr @_ZSt3minIfERKT_S2_S2_(ptr noundef nonnull align 4 dereferenceable(4) %7, ptr noundef nonnull align 4 dereferenceable(4) %14)
  %24 = call noundef nonnull align 4 dereferenceable(4) ptr @_ZSt3maxIfERKT_S2_S2_(ptr noundef nonnull align 4 dereferenceable(4) %13, ptr noundef nonnull align 4 dereferenceable(4) %23)
  %25 = load float, ptr %24, align 4, !tbaa !46
  store float %25, ptr %7, align 4, !tbaa !46
  call void @llvm.lifetime.end.p0(i64 4, ptr %14) #3
  call void @llvm.lifetime.end.p0(i64 4, ptr %13) #3
  call void @llvm.lifetime.start.p0(i64 4, ptr %15) #3
  store float 0.000000e+00, ptr %15, align 4, !tbaa !46
  call void @llvm.lifetime.start.p0(i64 4, ptr %16) #3
  store float 1.000000e+00, ptr %16, align 4, !tbaa !46
  %26 = call noundef nonnull align 4 dereferenceable(4) ptr @_ZSt3minIfERKT_S2_S2_(ptr noundef nonnull align 4 dereferenceable(4) %9, ptr noundef nonnull align 4 dereferenceable(4) %16)
  %27 = call noundef nonnull align 4 dereferenceable(4) ptr @_ZSt3maxIfERKT_S2_S2_(ptr noundef nonnull align 4 dereferenceable(4) %15, ptr noundef nonnull align 4 dereferenceable(4) %26)
  %28 = load float, ptr %27, align 4, !tbaa !46
  store float %28, ptr %9, align 4, !tbaa !46
  call void @llvm.lifetime.end.p0(i64 4, ptr %16) #3
  call void @llvm.lifetime.end.p0(i64 4, ptr %15) #3
  %29 = load float, ptr %7, align 4, !tbaa !46
  %30 = load float, ptr %9, align 4, !tbaa !46
  %31 = fadd float %29, %30
  %32 = load float, ptr %7, align 4, !tbaa !46
  %33 = load float, ptr %9, align 4, !tbaa !46
  %34 = fneg float %32
  %35 = call float @llvm.fmuladd.f32(float %34, float %33, float %31)
  %36 = load ptr, ptr %11, align 8, !tbaa !48
  store float %35, ptr %36, align 4, !tbaa !46
  %37 = load float, ptr %7, align 4, !tbaa !46
  %38 = fcmp oeq float %37, 1.000000e+00
  br i1 %38, label %39, label %48

39:                                               ; preds = %6
  %40 = load float, ptr %9, align 4, !tbaa !46
  %41 = fcmp oeq float %40, 1.000000e+00
  br i1 %41, label %42, label %48

42:                                               ; preds = %39
  %43 = load float, ptr %8, align 4, !tbaa !46
  %44 = load float, ptr %10, align 4, !tbaa !46
  %45 = fadd float %43, %44
  %46 = fdiv float %45, 2.000000e+00
  %47 = load ptr, ptr %12, align 8, !tbaa !48
  store float %46, ptr %47, align 4, !tbaa !46
  br label %121

48:                                               ; preds = %39, %6
  %49 = load float, ptr %7, align 4, !tbaa !46
  %50 = fcmp oeq float %49, 1.000000e+00
  br i1 %50, label %51, label %54

51:                                               ; preds = %48
  %52 = load float, ptr %8, align 4, !tbaa !46
  %53 = load ptr, ptr %12, align 8, !tbaa !48
  store float %52, ptr %53, align 4, !tbaa !46
  br label %120

54:                                               ; preds = %48
  %55 = load float, ptr %9, align 4, !tbaa !46
  %56 = fcmp oeq float %55, 1.000000e+00
  br i1 %56, label %57, label %60

57:                                               ; preds = %54
  %58 = load float, ptr %10, align 4, !tbaa !46
  %59 = load ptr, ptr %12, align 8, !tbaa !48
  store float %58, ptr %59, align 4, !tbaa !46
  br label %119

60:                                               ; preds = %54
  call void @llvm.lifetime.start.p0(i64 4, ptr %17) #3
  %61 = load float, ptr %7, align 4, !tbaa !46
  %62 = fneg float %61
  %63 = call noundef float @_ZSt5log1pf(float noundef %62)
  %64 = fneg float %63
  store float %64, ptr %17, align 4, !tbaa !46
  call void @llvm.lifetime.start.p0(i64 4, ptr %18) #3
  %65 = load float, ptr %17, align 4, !tbaa !46
  %66 = load float, ptr %7, align 4, !tbaa !46
  %67 = fmul float %66, 0x47EFFFFFE0000000
  %68 = fcmp olt float %65, %67
  br i1 %68, label %69, label %73

69:                                               ; preds = %60
  %70 = load float, ptr %17, align 4, !tbaa !46
  %71 = load float, ptr %7, align 4, !tbaa !46
  %72 = fdiv float %70, %71
  br label %74

73:                                               ; preds = %60
  br label %74

74:                                               ; preds = %73, %69
  %75 = phi float [ %72, %69 ], [ 1.000000e+00, %73 ]
  store float %75, ptr %18, align 4, !tbaa !46
  call void @llvm.lifetime.start.p0(i64 4, ptr %19) #3
  %76 = load float, ptr %9, align 4, !tbaa !46
  %77 = fneg float %76
  %78 = call noundef float @_ZSt5log1pf(float noundef %77)
  %79 = fneg float %78
  store float %79, ptr %19, align 4, !tbaa !46
  call void @llvm.lifetime.start.p0(i64 4, ptr %20) #3
  %80 = load float, ptr %19, align 4, !tbaa !46
  %81 = load float, ptr %9, align 4, !tbaa !46
  %82 = fmul float %81, 0x47EFFFFFE0000000
  %83 = fcmp olt float %80, %82
  br i1 %83, label %84, label %88

84:                                               ; preds = %74
  %85 = load float, ptr %19, align 4, !tbaa !46
  %86 = load float, ptr %9, align 4, !tbaa !46
  %87 = fdiv float %85, %86
  br label %89

88:                                               ; preds = %74
  br label %89

89:                                               ; preds = %88, %84
  %90 = phi float [ %87, %84 ], [ 1.000000e+00, %88 ]
  store float %90, ptr %20, align 4, !tbaa !46
  call void @llvm.lifetime.start.p0(i64 4, ptr %21) #3
  %91 = load float, ptr %17, align 4, !tbaa !46
  %92 = load float, ptr %19, align 4, !tbaa !46
  %93 = fadd float %91, %92
  store float %93, ptr %21, align 4, !tbaa !46
  call void @llvm.lifetime.start.p0(i64 4, ptr %22) #3
  %94 = load float, ptr %21, align 4, !tbaa !46
  %95 = fcmp ogt float %94, 1.000000e+00
  br i1 %95, label %102, label %96

96:                                               ; preds = %89
  %97 = load ptr, ptr %11, align 8, !tbaa !48
  %98 = load float, ptr %97, align 4, !tbaa !46
  %99 = load float, ptr %21, align 4, !tbaa !46
  %100 = fmul float %99, 0x47EFFFFFE0000000
  %101 = fcmp olt float %98, %100
  br i1 %101, label %102, label %107

102:                                              ; preds = %96, %89
  %103 = load ptr, ptr %11, align 8, !tbaa !48
  %104 = load float, ptr %103, align 4, !tbaa !46
  %105 = load float, ptr %21, align 4, !tbaa !46
  %106 = fdiv float %104, %105
  br label %108

107:                                              ; preds = %96
  br label %108

108:                                              ; preds = %107, %102
  %109 = phi float [ %106, %102 ], [ 1.000000e+00, %107 ]
  store float %109, ptr %22, align 4, !tbaa !46
  %110 = load float, ptr %8, align 4, !tbaa !46
  %111 = load float, ptr %18, align 4, !tbaa !46
  %112 = load float, ptr %10, align 4, !tbaa !46
  %113 = load float, ptr %20, align 4, !tbaa !46
  %114 = fmul float %112, %113
  %115 = call float @llvm.fmuladd.f32(float %110, float %111, float %114)
  %116 = load float, ptr %22, align 4, !tbaa !46
  %117 = fmul float %115, %116
  %118 = load ptr, ptr %12, align 8, !tbaa !48
  store float %117, ptr %118, align 4, !tbaa !46
  call void @llvm.lifetime.end.p0(i64 4, ptr %22) #3
  call void @llvm.lifetime.end.p0(i64 4, ptr %21) #3
  call void @llvm.lifetime.end.p0(i64 4, ptr %20) #3
  call void @llvm.lifetime.end.p0(i64 4, ptr %19) #3
  call void @llvm.lifetime.end.p0(i64 4, ptr %18) #3
  call void @llvm.lifetime.end.p0(i64 4, ptr %17) #3
  br label %119

119:                                              ; preds = %108, %57
  br label %120

120:                                              ; preds = %119, %51
  br label %121

121:                                              ; preds = %120, %42
  ret void
}