; Function Attrs: mustprogress nofree nounwind willreturn memory(write) uwtable
define dso_local void @_Z23mergeOverlappingSamplesffffRfS_(float noundef %0, float noundef %1, float noundef %2, float noundef %3, ptr noundef nonnull writeonly align 4 captures(none) dereferenceable(4) initializes((0, 4)) %4, ptr noundef nonnull writeonly align 4 captures(none) dereferenceable(4) initializes((0, 4)) %5) local_unnamed_addr #17 {
  %7 = fcmp ogt float %0, 1.000000e+00
  %.sroa.speculated46 = select i1 %7, float 1.000000e+00, float %0
  %8 = fcmp ogt float %.sroa.speculated46, 0.000000e+00
  %.sroa.speculated34 = select i1 %8, float %.sroa.speculated46, float 0.000000e+00
  %9 = fcmp ogt float %2, 1.000000e+00
  %.sroa.speculated40 = select i1 %9, float 1.000000e+00, float %2
  %10 = fcmp ogt float %.sroa.speculated40, 0.000000e+00
  %.sroa.speculated = select i1 %10, float %.sroa.speculated40, float 0.000000e+00
  %11 = fadd float %.sroa.speculated34, %.sroa.speculated
  %12 = fneg float %.sroa.speculated34
  %13 = tail call float @llvm.fmuladd.f32(float %12, float %.sroa.speculated, float %11)
  store float %13, ptr %4, align 4, !tbaa !57
  %14 = fcmp oeq float %.sroa.speculated34, 1.000000e+00
  %15 = fcmp oeq float %.sroa.speculated, 1.000000e+00
  %or.cond = and i1 %14, %15
  br i1 %or.cond, label %16, label %19

16:                                               ; preds = %6
  %17 = fadd float %1, %3
  %18 = fmul float %17, 5.000000e-01
  br label %43

19:                                               ; preds = %6
  %brmerge = or i1 %14, %15
  %.mux = select i1 %14, float %1, float %3
  br i1 %brmerge, label %43, label %20

20:                                               ; preds = %19
  %21 = tail call noundef float @log1pf(float noundef %12) #36, !tbaa !59
  %22 = fneg float %21
  %23 = fmul float %.sroa.speculated34, 0x47EFFFFFE0000000
  %24 = fcmp ogt float %23, %22
  %25 = fdiv float %22, %.sroa.speculated34
  %26 = select i1 %24, float %25, float 1.000000e+00
  %27 = fneg float %.sroa.speculated
  %28 = tail call noundef float @log1pf(float noundef %27) #36, !tbaa !59
  %29 = fneg float %28
  %30 = fmul float %.sroa.speculated, 0x47EFFFFFE0000000
  %31 = fcmp ogt float %30, %29
  %32 = fdiv float %29, %.sroa.speculated
  %33 = select i1 %31, float %32, float 1.000000e+00
  %34 = fsub float %29, %21
  %35 = fcmp ogt float %34, 1.000000e+00
  %36 = fmul float %34, 0x47EFFFFFE0000000
  %37 = fcmp olt float %13, %36
  %or.cond49 = or i1 %35, %37
  %38 = fdiv float %13, %34
  %39 = select i1 %or.cond49, float %38, float 1.000000e+00
  %40 = fmul float %3, %33
  %41 = tail call float @llvm.fmuladd.f32(float %1, float %26, float %40)
  %42 = fmul float %41, %39
  br label %43

43:                                               ; preds = %19, %20, %16
  %.sink = phi float [ %42, %20 ], [ %18, %16 ], [ %.mux, %19 ]
  store float %.sink, ptr %5, align 4, !tbaa !57
  ret void
}